; Function Attrs: mustprogress nounwind uwtable
define internal fastcc void @_ZN12_GLOBAL__N_122SearchableTableEmitter9emitIfdefEN4llvm9StringRefERNS1_11raw_ostreamE(ptr noundef nonnull align 8 dereferenceable(136) %0, ptr %1, i64 %2, ptr noundef nonnull align 8 dereferenceable(48) %3) unnamed_addr #1 align 2 {
  %5 = alloca %"struct.std::__cxx11::basic_string<char>::__sv_wrapper", align 8
  %6 = alloca %"class.std::__cxx11::basic_string", align 8
  %7 = alloca %"class.std::allocator.8", align 1
  %8 = getelementptr inbounds nuw i8, ptr %3, i64 24
  %9 = load ptr, ptr %8, align 8
  %10 = getelementptr inbounds nuw i8, ptr %3, i64 32
  %11 = load ptr, ptr %10, align 8
  %12 = ptrtoint ptr %9 to i64
  %13 = ptrtoint ptr %11 to i64
  %14 = sub i64 %12, %13
  %15 = icmp ult i64 %14, 7
  br i1 %15, label %16, label %18

16:                                               ; preds = %4
  %17 = tail call noundef nonnull align 8 dereferenceable(48) ptr @_ZN4llvm11raw_ostream5writeEPKcm(ptr noundef nonnull align 8 dereferenceable(48) %3, ptr noundef nonnull @.str.81, i64 noundef 7) #20
  %.phi.trans.insert = getelementptr inbounds nuw i8, ptr %17, i64 32
  %.pre = load ptr, ptr %.phi.trans.insert, align 8
  br label %_ZN4llvm11raw_ostreamlsEPKc.exit

18:                                               ; preds = %4
  tail call void @llvm.memcpy.p0.p0.i64(ptr noundef nonnull align 1 dereferenceable(7) %11, ptr noundef nonnull align 1 dereferenceable(7) @.str.81, i64 7, i1 false)
  %19 = load ptr, ptr %10, align 8
  %20 = getelementptr inbounds nuw i8, ptr %19, i64 7
  store ptr %20, ptr %10, align 8
  br label %_ZN4llvm11raw_ostreamlsEPKc.exit

_ZN4llvm11raw_ostreamlsEPKc.exit:                 ; preds = %16, %18
  %21 = phi ptr [ %.pre, %16 ], [ %20, %18 ]
  %.0.i.i = phi ptr [ %17, %16 ], [ %3, %18 ]
  %22 = getelementptr inbounds nuw i8, ptr %.0.i.i, i64 24
  %23 = load ptr, ptr %22, align 8
  %24 = getelementptr inbounds nuw i8, ptr %.0.i.i, i64 32
  %25 = ptrtoint ptr %23 to i64
  %26 = ptrtoint ptr %21 to i64
  %27 = sub i64 %25, %26
  %28 = icmp ugt i64 %2, %27
  br i1 %28, label %29, label %31

29:                                               ; preds = %_ZN4llvm11raw_ostreamlsEPKc.exit
  %30 = tail call noundef nonnull align 8 dereferenceable(48) ptr @_ZN4llvm11raw_ostream5writeEPKcm(ptr noundef nonnull align 8 dereferenceable(48) %.0.i.i, ptr noundef %1, i64 noundef %2) #20
  %.phi.trans.insert7 = getelementptr inbounds nuw i8, ptr %30, i64 32
  %.pre8 = load ptr, ptr %.phi.trans.insert7, align 8
  br label %_ZN4llvm11raw_ostreamlsENS_9StringRefE.exit

31:                                               ; preds = %_ZN4llvm11raw_ostreamlsEPKc.exit
  %.not.i = icmp eq i64 %2, 0
  br i1 %.not.i, label %_ZN4llvm11raw_ostreamlsENS_9StringRefE.exit, label %32

32:                                               ; preds = %31
  tail call void @llvm.memcpy.p0.p0.i64(ptr align 1 %21, ptr align 1 %1, i64 %2, i1 false)
  %33 = load ptr, ptr %24, align 8
  %34 = getelementptr inbounds i8, ptr %33, i64 %2
  store ptr %34, ptr %24, align 8
  br label %_ZN4llvm11raw_ostreamlsENS_9StringRefE.exit

_ZN4llvm11raw_ostreamlsENS_9StringRefE.exit:      ; preds = %29, %31, %32
  %35 = phi ptr [ %.pre8, %29 ], [ %34, %32 ], [ %21, %31 ]
  %.0.i = phi ptr [ %30, %29 ], [ %.0.i.i, %32 ], [ %.0.i.i, %31 ]
  %36 = getelementptr inbounds nuw i8, ptr %.0.i, i64 24
  %37 = load ptr, ptr %36, align 8
  %38 = icmp eq ptr %37, %35
  br i1 %38, label %39, label %41

39:                                               ; preds = %_ZN4llvm11raw_ostreamlsENS_9StringRefE.exit
  %40 = tail call noundef nonnull align 8 dereferenceable(48) ptr @_ZN4llvm11raw_ostream5writeEPKcm(ptr noundef nonnull align 8 dereferenceable(48) %.0.i, ptr noundef nonnull @.str.38, i64 noundef 1) #20
  br label %_ZN4llvm11raw_ostreamlsEPKc.exit5

41:                                               ; preds = %_ZN4llvm11raw_ostreamlsENS_9StringRefE.exit
  %42 = getelementptr inbounds nuw i8, ptr %.0.i, i64 32
  store i8 10, ptr %35, align 1
  %43 = load ptr, ptr %42, align 8
  %44 = getelementptr inbounds nuw i8, ptr %43, i64 1
  store ptr %44, ptr %42, align 8
  br label %_ZN4llvm11raw_ostreamlsEPKc.exit5

_ZN4llvm11raw_ostreamlsEPKc.exit5:                ; preds = %39, %41
  %45 = getelementptr inbounds nuw i8, ptr %0, i64 88
  call void @_ZNSaIcEC1Ev(ptr noundef nonnull align 1 dereferenceable(1) %7) #20
  call void @llvm.lifetime.start.p0(i64 16, ptr nonnull %5)
  %46 = call { i64, ptr } @_ZNSt7__cxx1112basic_stringIcSt11char_traitsIcESaIcEE17_S_to_string_viewESt17basic_string_viewIcS2_E(i64 %2, ptr %1) #20
  %47 = extractvalue { i64, ptr } %46, 0
  %48 = extractvalue { i64, ptr } %46, 1
  call void @_ZNSt7__cxx1112basic_stringIcSt11char_traitsIcESaIcEE12__sv_wrapperC1ESt17basic_string_viewIcS2_E(ptr noundef nonnull align 8 dereferenceable(16) %5, i64 %47, ptr %48) #20
  %49 = load i64, ptr %5, align 8
  %50 = getelementptr inbounds nuw i8, ptr %5, i64 8
  %51 = load ptr, ptr %50, align 8
  call void @_ZNSt7__cxx1112basic_stringIcSt11char_traitsIcESaIcEEC2ENS4_12__sv_wrapperERKS3_(ptr noundef nonnull align 8 dereferenceable(32) %6, i64 %49, ptr %51, ptr noundef nonnull align 1 dereferenceable(1) %7) #20
  call void @llvm.lifetime.end.p0(i64 16, ptr nonnull %5)
  %52 = call { ptr, i8 } @_ZNSt8_Rb_treeINSt7__cxx1112basic_stringIcSt11char_traitsIcESaIcEEES5_St9_IdentityIS5_ESt4lessIS5_ESaIS5_EE16_M_insert_uniqueIS5_EESt4pairISt17_Rb_tree_iteratorIS5_EbEOT_(ptr noundef nonnull align 8 dereferenceable(48) %45, ptr noundef nonnull align 8 dereferenceable(32) %6)
  call void @_ZNSt7__cxx1112basic_stringIcSt11char_traitsIcESaIcEED1Ev(ptr noundef nonnull align 8 dereferenceable(32) %6) #20
  call void @_ZNSaIcED1Ev(ptr noundef nonnull align 1 dereferenceable(1) %7) #20
  ret void
}